; Function Attrs: mustprogress uwtable
define void @_ZN15RtpStreamDialog20displayFilterSuccessEb(ptr nocapture noundef nonnull readonly align 8 dereferenceable(360) %0, i1 noundef zeroext %1) local_unnamed_addr #0 align 2 {
  br i1 %1, label %3, label %12

3:                                                ; preds = %2
  %4 = getelementptr inbounds i8, ptr %0, i64 136
  %5 = load ptr, ptr %4, align 8
  %6 = getelementptr inbounds i8, ptr %5, i64 168
  %7 = load ptr, ptr %6, align 8
  %8 = tail call noundef zeroext i1 @_ZNK15QAbstractButton9isCheckedEv(ptr noundef nonnull align 8 dereferenceable(40) %7)
  br i1 %8, label %9, label %12

9:                                                ; preds = %3
  %10 = getelementptr inbounds i8, ptr %0, i64 64
  %11 = load ptr, ptr %10, align 8
  tail call void @_ZN11CaptureFile12retapPacketsEv(ptr noundef nonnull align 8 dereferenceable(48) %11)
  br label %12

12:                                               ; preds = %9, %3, %2
  ret void
}